target datalayout = "e-m:e-p270:32:32-p271:32:32-p272:64:64-i64:64-i128:128-f80:128-n8:16:32:64-S128"
target triple = "x86_64-pc-linux-gnu"

%struct.addrinfo = type { i32, i32, i32, i32, i32, ptr, ptr, ptr }

@.str = private unnamed_addr constant [2 x i8] c"0\00", align 1
@.str.1 = private unnamed_addr constant [3 x i8] c"%d\00", align 1
@.str.2 = private unnamed_addr constant [25 x i8] c"getaddrinfo(%s, %s): %s\0A\00", align 1
@.str.3 = private unnamed_addr constant [8 x i8] c"unknown\00", align 1

; Function Attrs: nounwind uwtable
define ptr @ff_ip_resolve_host(ptr noundef %0, ptr noundef %1, i32 noundef %2, i32 noundef %3, i32 noundef %4, i32 noundef %5) #0 {
  %7 = alloca ptr, align 8
  %8 = alloca ptr, align 8
  %9 = alloca i32, align 4
  %10 = alloca i32, align 4
  %11 = alloca i32, align 4
  %12 = alloca i32, align 4
  %13 = alloca %struct.addrinfo, align 8
  %14 = alloca ptr, align 8
  %15 = alloca i32, align 4
  %16 = alloca [16 x i8], align 16
  %17 = alloca ptr, align 8
  %18 = alloca ptr, align 8
  store ptr %0, ptr %7, align 8, !tbaa !30
  store ptr %1, ptr %8, align 8, !tbaa !28
  store i32 %2, ptr %9, align 4, !tbaa !14
  store i32 %3, ptr %10, align 4, !tbaa !14
  store i32 %4, ptr %11, align 4, !tbaa !14
  store i32 %5, ptr %12, align 4, !tbaa !14
  call void @llvm.lifetime.start.p0(i64 48, ptr %13) #7
  call void @llvm.memset.p0.i64(ptr align 8 %13, i8 0, i64 48, i1 false)
  call void @llvm.lifetime.start.p0(i64 8, ptr %14) #7
  store ptr null, ptr %14, align 8, !tbaa !31
  call void @llvm.lifetime.start.p0(i64 4, ptr %15) #7
  call void @llvm.lifetime.start.p0(i64 16, ptr %16) #7
  call void @llvm.lifetime.start.p0(i64 8, ptr %17) #7
  store ptr null, ptr %17, align 8, !tbaa !28
  call void @llvm.lifetime.start.p0(i64 8, ptr %18) #7
  store ptr @.str, ptr %18, align 8, !tbaa !28
  %19 = load i32, ptr %9, align 4, !tbaa !14
  %20 = icmp sgt i32 %19, 0
  br i1 %20, label %21, label %26

21:                                               ; preds = %6
  %22 = getelementptr inbounds [16 x i8], ptr %16, i64 0, i64 0
  %23 = load i32, ptr %9, align 4, !tbaa !14
  %24 = call i32 (ptr, i64, ptr, ...) @snprintf(ptr noundef %22, i64 noundef 16, ptr noundef @.str.1, i32 noundef %23) #7
  %25 = getelementptr inbounds [16 x i8], ptr %16, i64 0, i64 0
  store ptr %25, ptr %18, align 8, !tbaa !28
  br label %26

26:                                               ; preds = %21, %6
  %27 = load ptr, ptr %8, align 8, !tbaa !28
  %28 = icmp ne ptr %27, null
  br i1 %28, label %29, label %43

29:                                               ; preds = %26
  %30 = load ptr, ptr %8, align 8, !tbaa !28
  %31 = getelementptr inbounds i8, ptr %30, i64 0
  %32 = load i8, ptr %31, align 1, !tbaa !33
  %33 = sext i8 %32 to i32
  %34 = icmp ne i32 %33, 0
  br i1 %34, label %35, label %43

35:                                               ; preds = %29
  %36 = load ptr, ptr %8, align 8, !tbaa !28
  %37 = getelementptr inbounds i8, ptr %36, i64 0
  %38 = load i8, ptr %37, align 1, !tbaa !33
  %39 = sext i8 %38 to i32
  %40 = icmp ne i32 %39, 63
  br i1 %40, label %41, label %43

41:                                               ; preds = %35
  %42 = load ptr, ptr %8, align 8, !tbaa !28
  store ptr %42, ptr %17, align 8, !tbaa !28
  br label %43

43:                                               ; preds = %41, %35, %29, %26
  %44 = load i32, ptr %10, align 4, !tbaa !14
  %45 = getelementptr inbounds nuw %struct.addrinfo, ptr %13, i32 0, i32 2
  store i32 %44, ptr %45, align 8, !tbaa !34
  %46 = load i32, ptr %11, align 4, !tbaa !14
  %47 = getelementptr inbounds nuw %struct.addrinfo, ptr %13, i32 0, i32 1
  store i32 %46, ptr %47, align 4, !tbaa !37
  %48 = load i32, ptr %12, align 4, !tbaa !14
  %49 = getelementptr inbounds nuw %struct.addrinfo, ptr %13, i32 0, i32 0
  store i32 %48, ptr %49, align 8, !tbaa !38
  %50 = load ptr, ptr %17, align 8, !tbaa !28
  %51 = load ptr, ptr %18, align 8, !tbaa !28
  %52 = call i32 @getaddrinfo(ptr noundef %50, ptr noundef %51, ptr noundef %13, ptr noundef %14)
  store i32 %52, ptr %15, align 4, !tbaa !14
  %53 = icmp ne i32 %52, 0
  br i1 %53, label %54, label %66

54:                                               ; preds = %43
  store ptr null, ptr %14, align 8, !tbaa !31
  %55 = load ptr, ptr %7, align 8, !tbaa !30
  %56 = load ptr, ptr %17, align 8, !tbaa !28
  %57 = icmp ne ptr %56, null
  br i1 %57, label %58, label %60

58:                                               ; preds = %54
  %59 = load ptr, ptr %17, align 8, !tbaa !28
  br label %61

60:                                               ; preds = %54
  br label %61

61:                                               ; preds = %60, %58
  %62 = phi ptr [ %59, %58 ], [ @.str.3, %60 ]
  %63 = load ptr, ptr %18, align 8, !tbaa !28
  %64 = load i32, ptr %15, align 4, !tbaa !14
  %65 = call ptr @gai_strerror(i32 noundef %64) #7
  call void (ptr, i32, ptr, ...) @av_log(ptr noundef %55, i32 noundef 16, ptr noundef @.str.2, ptr noundef %62, ptr noundef %63, ptr noundef %65)
  br label %66

66:                                               ; preds = %61, %43
  %67 = load ptr, ptr %14, align 8, !tbaa !31
  call void @llvm.lifetime.end.p0(i64 8, ptr %18) #7
  call void @llvm.lifetime.end.p0(i64 8, ptr %17) #7
  call void @llvm.lifetime.end.p0(i64 16, ptr %16) #7
  call void @llvm.lifetime.end.p0(i64 4, ptr %15) #7
  call void @llvm.lifetime.end.p0(i64 8, ptr %14) #7
  call void @llvm.lifetime.end.p0(i64 48, ptr %13) #7
  ret ptr %67
}