; Function Attrs: nounwind uwtable
define ptr @ff_ip_resolve_host(ptr noundef %0, ptr noundef %1, i32 noundef %2, i32 noundef %3, i32 noundef %4, i32 noundef %5) local_unnamed_addr #2 {
  %7 = alloca %struct.addrinfo, align 8
  %8 = alloca ptr, align 8
  %9 = alloca [16 x i8], align 16
  call void @llvm.lifetime.start.p0(i64 48, ptr nonnull %7) #9
  %10 = getelementptr inbounds nuw i8, ptr %7, i64 8
  call void @llvm.memset.p0.i64(ptr noundef nonnull align 8 dereferenceable(40) %10, i8 0, i64 40, i1 false)
  call void @llvm.lifetime.start.p0(i64 8, ptr nonnull %8) #9
  store ptr null, ptr %8, align 8, !tbaa !24
  call void @llvm.lifetime.start.p0(i64 16, ptr nonnull %9) #9
  %11 = icmp sgt i32 %2, 0
  br i1 %11, label %12, label %14

12:                                               ; preds = %6
  %13 = call i32 (ptr, i64, ptr, ...) @snprintf(ptr noundef nonnull dereferenceable(1) %9, i64 noundef 16, ptr noundef nonnull @.str.1, i32 noundef %2) #9
  br label %14

14:                                               ; preds = %12, %6
  %.0 = phi ptr [ %9, %12 ], [ @.str, %6 ]
  %.not = icmp eq ptr %1, null
  br i1 %.not, label %18, label %15

15:                                               ; preds = %14
  %16 = load i8, ptr %1, align 1, !tbaa !26
  switch i8 %16, label %17 [
    i8 0, label %18
    i8 63, label %18
  ]

17:                                               ; preds = %15
  br label %18

18:                                               ; preds = %15, %15, %17, %14
  %.015 = phi ptr [ %1, %17 ], [ null, %15 ], [ null, %14 ], [ null, %15 ]
  %19 = getelementptr inbounds nuw i8, ptr %7, i64 8
  store i32 %3, ptr %19, align 8, !tbaa !27
  %20 = getelementptr inbounds nuw i8, ptr %7, i64 4
  store i32 %4, ptr %20, align 4, !tbaa !31
  store i32 %5, ptr %7, align 8, !tbaa !32
  %21 = call i32 @getaddrinfo(ptr noundef %.015, ptr noundef nonnull %.0, ptr noundef nonnull %7, ptr noundef nonnull %8) #9
  %.not22 = icmp eq i32 %21, 0
  br i1 %.not22, label %25, label %22

22:                                               ; preds = %18
  store ptr null, ptr %8, align 8, !tbaa !24
  %.not23 = icmp eq ptr %.015, null
  %23 = select i1 %.not23, ptr @.str.3, ptr %.015
  %24 = call ptr @gai_strerror(i32 noundef %21) #9
  call void (ptr, i32, ptr, ...) @av_log(ptr noundef %0, i32 noundef 16, ptr noundef nonnull @.str.2, ptr noundef nonnull %23, ptr noundef nonnull %.0, ptr noundef %24) #9
  br label %25

25:                                               ; preds = %22, %18
  %26 = load ptr, ptr %8, align 8, !tbaa !24
  call void @llvm.lifetime.end.p0(i64 16, ptr nonnull %9) #9
  call void @llvm.lifetime.end.p0(i64 8, ptr nonnull %8) #9
  call void @llvm.lifetime.end.p0(i64 48, ptr nonnull %7) #9
  ret ptr %26
}